; Function Attrs: mustprogress uwtable
define void @_ZN5folly5Codel10setOptionsERKNS0_7OptionsE(ptr noundef nonnull writeonly align 8 captures(none) dereferenceable(34) %0, ptr noundef nonnull readonly align 8 captures(none) dereferenceable(16) %1) local_unnamed_addr #5 align 2 personality ptr @__gxx_personality_v0 {
  %3 = getelementptr inbounds nuw i8, ptr %1, i64 8
  %.sroa.0.0.copyload.i = load i64, ptr %3, align 8, !tbaa !14
  %.sroa.0.0.copyload.i5 = load i64, ptr %1, align 8, !tbaa !14
  %4 = icmp sge i64 %.sroa.0.0.copyload.i, %.sroa.0.0.copyload.i5
  %5 = icmp slt i64 %.sroa.0.0.copyload.i, 1
  %or.cond = or i1 %5, %4
  br i1 %or.cond, label %.critedge, label %10

.critedge:                                        ; preds = %2
  %6 = tail call ptr @__cxa_allocate_exception(i64 16) #9
  invoke void @_ZNSt16invalid_argumentC1EPKc(ptr noundef nonnull align 8 dereferenceable(16) %6, ptr noundef nonnull @.str.6)
          to label %7 unwind label %8

7:                                                ; preds = %.critedge
  tail call void @__cxa_throw(ptr nonnull %6, ptr nonnull @_ZTISt16invalid_argument, ptr nonnull @_ZNSt16invalid_argumentD1Ev) #10
  unreachable

8:                                                ; preds = %.critedge
  %9 = landingpad { ptr, i32 }
          cleanup
  tail call void @__cxa_free_exception(ptr nonnull %6) #9
  resume { ptr, i32 } %9

10:                                               ; preds = %2
  %11 = getelementptr inbounds nuw i8, ptr %0, i64 24
  store atomic i64 %.sroa.0.0.copyload.i5, ptr %11 monotonic, align 8
  %12 = getelementptr inbounds nuw i8, ptr %0, i64 16
  store atomic i64 %.sroa.0.0.copyload.i, ptr %12 monotonic, align 8
  ret void
}